; Function Attrs: nounwind uwtable
define range(i32 0, 2) i32 @Abc_FrameShowProgress(ptr noundef readnone captures(none) %0) local_unnamed_addr #1 {
  %2 = load ptr, ptr @s_GlobalFrame, align 8, !tbaa !3
  %3 = tail call ptr @Cmd_FlagReadByName(ptr noundef %2, ptr noundef nonnull @.str.2) #20
  %4 = icmp eq ptr %3, null
  br i1 %4, label %Abc_FrameIsFlagEnabled.exit, label %5

5:                                                ; preds = %1
  %strcmpload.i = load i8, ptr %3, align 1
  switch i8 %strcmpload.i, label %Abc_FrameIsFlagEnabled.exit [
    i8 0, label %9
    i8 49, label %.tail.i
  ]

.tail.i:                                          ; preds = %5
  %6 = getelementptr inbounds nuw i8, ptr %3, i64 1
  %7 = load i8, ptr %6, align 1
  %8 = icmp eq i8 %7, 0
  br i1 %8, label %9, label %Abc_FrameIsFlagEnabled.exit

9:                                                ; preds = %.tail.i, %5
  br label %Abc_FrameIsFlagEnabled.exit

Abc_FrameIsFlagEnabled.exit:                      ; preds = %1, %5, %.tail.i, %9
  %.0.i = phi i32 [ 1, %9 ], [ 0, %1 ], [ 0, %.tail.i ], [ 0, %5 ]
  ret i32 %.0.i
}